target datalayout = "e-m:e-p270:32:32-p271:32:32-p272:64:64-i64:64-i128:128-f80:128-n8:16:32:64-S128"
target triple = "x86_64-pc-linux-gnu"

%struct.ident_t = type { i32, i32, i32, i32, ptr }

@1 = private unnamed_addr constant %struct.ident_t { i32 0, i32 514, i32 0, i32 22, ptr @0 }, align 8
@2 = private unnamed_addr constant %struct.ident_t { i32 0, i32 66, i32 0, i32 22, ptr @0 }, align 8
@.gomp_critical_user_.reduction.var = common global [8 x i32] zeroinitializer, align 8
@4 = private unnamed_addr constant %struct.ident_t { i32 0, i32 18, i32 0, i32 22, ptr @0 }, align 8

; Function Attrs: alwaysinline norecurse nounwind uwtable
define internal void @statevec_findProbabilityOfZeroLocal.omp_outlined(ptr noalias noundef %0, ptr noalias noundef %1, ptr noundef nonnull align 8 dereferenceable(8) %2, ptr noundef nonnull align 8 dereferenceable(8) %3, ptr noundef nonnull align 8 dereferenceable(8) %4, ptr noundef nonnull align 8 dereferenceable(8) %5, ptr noundef nonnull align 8 dereferenceable(8) %6, ptr noundef nonnull align 8 dereferenceable(8) %7) #2 {
  %9 = alloca ptr, align 8
  %10 = alloca ptr, align 8
  %11 = alloca ptr, align 8
  %12 = alloca ptr, align 8
  %13 = alloca ptr, align 8
  %14 = alloca ptr, align 8
  %15 = alloca ptr, align 8
  %16 = alloca ptr, align 8
  %17 = alloca i64, align 8
  %18 = alloca i64, align 8
  %19 = alloca double, align 8
  %20 = alloca i64, align 8
  %21 = alloca i64, align 8
  %22 = alloca i64, align 8
  %23 = alloca i64, align 8
  %24 = alloca i64, align 8
  %25 = alloca i64, align 8
  %26 = alloca i64, align 8
  %27 = alloca i32, align 4
  %28 = alloca i64, align 8
  %29 = alloca [1 x ptr], align 8
  store ptr %0, ptr %9, align 8, !tbaa !19
  store ptr %1, ptr %10, align 8, !tbaa !19
  store ptr %2, ptr %11, align 8, !tbaa !21
  store ptr %3, ptr %12, align 8, !tbaa !21
  store ptr %4, ptr %13, align 8, !tbaa !21
  store ptr %5, ptr %14, align 8, !tbaa !25
  store ptr %6, ptr %15, align 8, !tbaa !33
  store ptr %7, ptr %16, align 8, !tbaa !33
  %30 = load ptr, ptr %11, align 8, !tbaa !21
  %31 = load ptr, ptr %12, align 8, !tbaa !21
  %32 = load ptr, ptr %13, align 8, !tbaa !21
  %33 = load ptr, ptr %14, align 8, !tbaa !25
  %34 = load ptr, ptr %15, align 8, !tbaa !33
  %35 = load ptr, ptr %16, align 8, !tbaa !33
  call void @llvm.lifetime.start.p0(i64 8, ptr %17) #3
  call void @llvm.lifetime.start.p0(i64 8, ptr %18) #3
  call void @llvm.lifetime.start.p0(i64 8, ptr %19) #3
  store double 0.000000e+00, ptr %19, align 8, !tbaa !10
  call void @llvm.lifetime.start.p0(i64 8, ptr %20) #3
  call void @llvm.lifetime.start.p0(i64 8, ptr %21) #3
  %36 = load i64, ptr %30, align 8, !tbaa !4
  store i64 %36, ptr %21, align 8, !tbaa !4
  call void @llvm.lifetime.start.p0(i64 8, ptr %22) #3
  %37 = load i64, ptr %21, align 8, !tbaa !4
  %38 = sub nsw i64 %37, 0
  %39 = sdiv i64 %38, 1
  %40 = sub nsw i64 %39, 1
  store i64 %40, ptr %22, align 8, !tbaa !4
  call void @llvm.lifetime.start.p0(i64 8, ptr %23) #3
  store i64 0, ptr %23, align 8, !tbaa !4
  call void @llvm.lifetime.end.p0(i64 8, ptr %23) #3
  %41 = load i64, ptr %21, align 8, !tbaa !4
  %42 = icmp slt i64 0, %41
  br i1 %42, label %43, label %104

43:                                               ; preds = %8
  call void @llvm.lifetime.start.p0(i64 8, ptr %24) #3
  store i64 0, ptr %24, align 8, !tbaa !4
  call void @llvm.lifetime.start.p0(i64 8, ptr %25) #3
  %44 = load i64, ptr %22, align 8, !tbaa !4
  store i64 %44, ptr %25, align 8, !tbaa !4
  call void @llvm.lifetime.start.p0(i64 8, ptr %26) #3
  store i64 1, ptr %26, align 8, !tbaa !4
  call void @llvm.lifetime.start.p0(i64 4, ptr %27) #3
  store i32 0, ptr %27, align 4, !tbaa !8
  call void @llvm.lifetime.start.p0(i64 8, ptr %28) #3
  %45 = load ptr, ptr %9, align 8
  %46 = load i32, ptr %45, align 4, !tbaa !8
  call void @__kmpc_for_static_init_8(ptr @1, i32 %46, i32 34, ptr %27, ptr %24, ptr %25, ptr %26, i64 1, i64 1)
  %47 = load i64, ptr %25, align 8, !tbaa !4
  %48 = load i64, ptr %22, align 8, !tbaa !4
  %49 = icmp sgt i64 %47, %48
  br i1 %49, label %50, label %52

50:                                               ; preds = %43
  %51 = load i64, ptr %22, align 8, !tbaa !4
  br label %54

52:                                               ; preds = %43
  %53 = load i64, ptr %25, align 8, !tbaa !4
  br label %54

54:                                               ; preds = %52, %50
  %55 = phi i64 [ %51, %50 ], [ %53, %52 ]
  store i64 %55, ptr %25, align 8, !tbaa !4
  %56 = load i64, ptr %24, align 8, !tbaa !4
  store i64 %56, ptr %20, align 8, !tbaa !4
  br label %57

57:                                               ; preds = %97, %54
  %58 = load i64, ptr %20, align 8, !tbaa !4
  %59 = load i64, ptr %25, align 8, !tbaa !4
  %60 = icmp sle i64 %58, %59
  br i1 %60, label %62, label %61

61:                                               ; preds = %57
  br label %100

62:                                               ; preds = %57
  %63 = load i64, ptr %20, align 8, !tbaa !4
  %64 = mul nsw i64 %63, 1
  %65 = add nsw i64 0, %64
  store i64 %65, ptr %28, align 8, !tbaa !4
  %66 = load i64, ptr %28, align 8, !tbaa !4
  %67 = load i64, ptr %31, align 8, !tbaa !4
  %68 = sdiv i64 %66, %67
  store i64 %68, ptr %17, align 8, !tbaa !4
  %69 = load i64, ptr %17, align 8, !tbaa !4
  %70 = load i64, ptr %32, align 8, !tbaa !4
  %71 = mul nsw i64 %69, %70
  %72 = load i64, ptr %28, align 8, !tbaa !4
  %73 = load i64, ptr %31, align 8, !tbaa !4
  %74 = srem i64 %72, %73
  %75 = add nsw i64 %71, %74
  store i64 %75, ptr %18, align 8, !tbaa !4
  %76 = load ptr, ptr %34, align 8, !tbaa !25
  %77 = load i64, ptr %18, align 8, !tbaa !4
  %78 = getelementptr inbounds double, ptr %76, i64 %77
  %79 = load double, ptr %78, align 8, !tbaa !10
  %80 = load ptr, ptr %34, align 8, !tbaa !25
  %81 = load i64, ptr %18, align 8, !tbaa !4
  %82 = getelementptr inbounds double, ptr %80, i64 %81
  %83 = load double, ptr %82, align 8, !tbaa !10
  %84 = load ptr, ptr %35, align 8, !tbaa !25
  %85 = load i64, ptr %18, align 8, !tbaa !4
  %86 = getelementptr inbounds double, ptr %84, i64 %85
  %87 = load double, ptr %86, align 8, !tbaa !10
  %88 = load ptr, ptr %35, align 8, !tbaa !25
  %89 = load i64, ptr %18, align 8, !tbaa !4
  %90 = getelementptr inbounds double, ptr %88, i64 %89
  %91 = load double, ptr %90, align 8, !tbaa !10
  %92 = fmul double %87, %91
  %93 = call double @llvm.fmuladd.f64(double %79, double %83, double %92)
  %94 = load double, ptr %19, align 8, !tbaa !10
  %95 = fadd double %94, %93
  store double %95, ptr %19, align 8, !tbaa !10
  br label %96

96:                                               ; preds = %62
  br label %97

97:                                               ; preds = %96
  %98 = load i64, ptr %20, align 8, !tbaa !4
  %99 = add nsw i64 %98, 1
  store i64 %99, ptr %20, align 8, !tbaa !4
  br label %57

100:                                              ; preds = %61
  br label %101

101:                                              ; preds = %100
  %102 = load ptr, ptr %9, align 8
  %103 = load i32, ptr %102, align 4, !tbaa !8
  call void @__kmpc_for_static_fini(ptr @1, i32 %103)
  call void @llvm.lifetime.end.p0(i64 8, ptr %28) #3
  call void @llvm.lifetime.end.p0(i64 4, ptr %27) #3
  call void @llvm.lifetime.end.p0(i64 8, ptr %26) #3
  call void @llvm.lifetime.end.p0(i64 8, ptr %25) #3
  call void @llvm.lifetime.end.p0(i64 8, ptr %24) #3
  br label %104

104:                                              ; preds = %101, %8
  call void @llvm.lifetime.end.p0(i64 8, ptr %22) #3
  call void @llvm.lifetime.end.p0(i64 8, ptr %21) #3
  call void @llvm.lifetime.end.p0(i64 8, ptr %20) #3
  %105 = load ptr, ptr %9, align 8
  %106 = load i32, ptr %105, align 4, !tbaa !8
  call void @__kmpc_barrier(ptr @2, i32 %106)
  %107 = getelementptr inbounds [1 x ptr], ptr %29, i64 0, i64 0
  store ptr %19, ptr %107, align 8
  %108 = load ptr, ptr %9, align 8
  %109 = load i32, ptr %108, align 4, !tbaa !8
  %110 = call i32 @__kmpc_reduce_nowait(ptr @4, i32 %109, i32 1, i64 8, ptr %29, ptr @statevec_findProbabilityOfZeroLocal.omp_outlined.omp.reduction.reduction_func, ptr @.gomp_critical_user_.reduction.var)
  switch i32 %110, label %118 [
    i32 1, label %111
    i32 2, label %115
  ]

111:                                              ; preds = %104
  %112 = load double, ptr %33, align 8, !tbaa !10
  %113 = load double, ptr %19, align 8, !tbaa !10
  %114 = fadd double %112, %113
  store double %114, ptr %33, align 8, !tbaa !10
  call void @__kmpc_end_reduce_nowait(ptr @4, i32 %109, ptr @.gomp_critical_user_.reduction.var)
  br label %118

115:                                              ; preds = %104
  %116 = load double, ptr %19, align 8, !tbaa !10
  %117 = atomicrmw fadd ptr %33, double %116 monotonic, align 8
  br label %118

118:                                              ; preds = %115, %111, %104
  call void @llvm.lifetime.end.p0(i64 8, ptr %19) #3
  call void @llvm.lifetime.end.p0(i64 8, ptr %18) #3
  call void @llvm.lifetime.end.p0(i64 8, ptr %17) #3
  ret void
}