; Function Attrs: alwaysinline norecurse nounwind uwtable
define internal void @statevec_findProbabilityOfZeroLocal.omp_outlined(ptr noalias noundef readonly captures(none) %0, ptr noalias readnone captures(none) %1, ptr noundef nonnull readonly align 8 captures(none) dereferenceable(8) %2, ptr noundef nonnull readonly align 8 captures(none) dereferenceable(8) %3, ptr noundef nonnull readonly align 8 captures(none) dereferenceable(8) %4, ptr noundef nonnull align 8 captures(none) dereferenceable(8) %5, ptr noundef nonnull readonly align 8 captures(none) dereferenceable(8) %6, ptr noundef nonnull readonly align 8 captures(none) dereferenceable(8) %7) #3 {
  %9 = alloca double, align 8
  %10 = alloca i64, align 8
  %11 = alloca i64, align 8
  %12 = alloca i64, align 8
  %13 = alloca i32, align 4
  %14 = alloca [1 x ptr], align 8
  call void @llvm.lifetime.start.p0(i64 8, ptr nonnull %9) #4
  store double 0.000000e+00, ptr %9, align 8, !tbaa !4
  %15 = load i64, ptr %2, align 8, !tbaa !16
  %16 = icmp sgt i64 %15, 0
  %.pre = load i32, ptr %0, align 4, !tbaa !18
  br i1 %16, label %17, label %40

17:                                               ; preds = %8
  %18 = add nsw i64 %15, -1
  call void @llvm.lifetime.start.p0(i64 8, ptr nonnull %10) #4
  store i64 0, ptr %10, align 8, !tbaa !16
  call void @llvm.lifetime.start.p0(i64 8, ptr nonnull %11) #4
  store i64 %18, ptr %11, align 8, !tbaa !16
  call void @llvm.lifetime.start.p0(i64 8, ptr nonnull %12) #4
  store i64 1, ptr %12, align 8, !tbaa !16
  call void @llvm.lifetime.start.p0(i64 4, ptr nonnull %13) #4
  store i32 0, ptr %13, align 4, !tbaa !18
  call void @__kmpc_for_static_init_8(ptr nonnull @1, i32 %.pre, i32 34, ptr nonnull %13, ptr nonnull %10, ptr nonnull %11, ptr nonnull %12, i64 1, i64 1)
  %19 = load i64, ptr %11, align 8, !tbaa !16
  %20 = call i64 @llvm.smin.i64(i64 %19, i64 %18)
  store i64 %20, ptr %11, align 8, !tbaa !16
  %21 = load i64, ptr %10, align 8, !tbaa !16
  %.not24 = icmp sgt i64 %21, %20
  br i1 %.not24, label %._crit_edge, label %.lr.ph

.lr.ph:                                           ; preds = %17
  %22 = load i64, ptr %3, align 8, !tbaa !16
  %23 = load i64, ptr %4, align 8, !tbaa !16
  %24 = load ptr, ptr %6, align 8, !tbaa !26
  %25 = load ptr, ptr %7, align 8, !tbaa !26
  br label %26

26:                                               ; preds = %.lr.ph, %26
  %.025 = phi i64 [ %21, %.lr.ph ], [ %39, %26 ]
  %27 = phi double [ 0.000000e+00, %.lr.ph ], [ %38, %26 ]
  %28 = sdiv i64 %.025, %22
  %29 = mul nsw i64 %23, %28
  %30 = srem i64 %.025, %22
  %31 = add nsw i64 %29, %30
  %32 = getelementptr inbounds double, ptr %24, i64 %31
  %33 = load double, ptr %32, align 8, !tbaa !4
  %34 = getelementptr inbounds double, ptr %25, i64 %31
  %35 = load double, ptr %34, align 8, !tbaa !4
  %36 = fmul double %35, %35
  %37 = call double @llvm.fmuladd.f64(double %33, double %33, double %36)
  %38 = fadd double %27, %37
  store double %38, ptr %9, align 8, !tbaa !4
  %39 = add i64 %.025, 1
  %exitcond.not = icmp eq i64 %.025, %20
  br i1 %exitcond.not, label %._crit_edge, label %26

._crit_edge:                                      ; preds = %26, %17
  call void @__kmpc_for_static_fini(ptr nonnull @1, i32 %.pre)
  call void @llvm.lifetime.end.p0(i64 4, ptr nonnull %13) #4
  call void @llvm.lifetime.end.p0(i64 8, ptr nonnull %12) #4
  call void @llvm.lifetime.end.p0(i64 8, ptr nonnull %11) #4
  call void @llvm.lifetime.end.p0(i64 8, ptr nonnull %10) #4
  br label %40

40:                                               ; preds = %._crit_edge, %8
  call void @__kmpc_barrier(ptr nonnull @2, i32 %.pre)
  store ptr %9, ptr %14, align 8
  %41 = call i32 @__kmpc_reduce_nowait(ptr nonnull @4, i32 %.pre, i32 1, i64 8, ptr nonnull %14, ptr nonnull @statevec_findProbabilityOfZeroLocal.omp_outlined.omp.reduction.reduction_func, ptr nonnull @.gomp_critical_user_.reduction.var)
  switch i32 %41, label %49 [
    i32 1, label %42
    i32 2, label %46
  ]

42:                                               ; preds = %40
  %43 = load double, ptr %5, align 8, !tbaa !4
  %44 = load double, ptr %9, align 8, !tbaa !4
  %45 = fadd double %43, %44
  store double %45, ptr %5, align 8, !tbaa !4
  call void @__kmpc_end_reduce_nowait(ptr nonnull @4, i32 %.pre, ptr nonnull @.gomp_critical_user_.reduction.var)
  br label %49

46:                                               ; preds = %40
  %47 = load double, ptr %9, align 8, !tbaa !4
  %48 = atomicrmw fadd ptr %5, double %47 monotonic, align 8
  br label %49

49:                                               ; preds = %46, %42, %40
  call void @llvm.lifetime.end.p0(i64 8, ptr nonnull %9) #4
  ret void
}